target datalayout = "e-m:e-p270:32:32-p271:32:32-p272:64:64-i64:64-i128:128-f80:128-n8:16:32:64-S128"
target triple = "x86_64-pc-linux-gnu"

%struct.NODE = type { ptr, ptr, ptr }
%union.QueryItem = type { %struct.QueryOperand }
%struct.QueryOperand = type { i8, i8, i8, i32, i32 }
%struct.QueryOperator = type { i8, i8, i16, i32 }

; Function Attrs: nounwind uwtable
define internal ptr @maketree(ptr noundef %0) #0 {
  %2 = alloca ptr, align 8
  %3 = alloca ptr, align 8
  store ptr %0, ptr %2, align 8
  call void @llvm.lifetime.start.p0(i64 8, ptr %3) #5
  %4 = call ptr @palloc(i64 noundef 24)
  store ptr %4, ptr %3, align 8
  call void @check_stack_depth()
  %5 = load ptr, ptr %2, align 8
  %6 = load ptr, ptr %3, align 8
  %7 = getelementptr inbounds nuw %struct.NODE, ptr %6, i32 0, i32 2
  store ptr %5, ptr %7, align 8
  %8 = load ptr, ptr %3, align 8
  %9 = getelementptr inbounds nuw %struct.NODE, ptr %8, i32 0, i32 0
  store ptr null, ptr %9, align 8
  %10 = load ptr, ptr %3, align 8
  %11 = getelementptr inbounds nuw %struct.NODE, ptr %10, i32 0, i32 1
  store ptr null, ptr %11, align 8
  %12 = load ptr, ptr %2, align 8
  %13 = load i8, ptr %12, align 4
  %14 = sext i8 %13 to i32
  %15 = icmp eq i32 %14, 2
  br i1 %15, label %16, label %38

16:                                               ; preds = %1
  %17 = load ptr, ptr %2, align 8
  %18 = getelementptr inbounds %union.QueryItem, ptr %17, i64 1
  %19 = call ptr @maketree(ptr noundef %18)
  %20 = load ptr, ptr %3, align 8
  %21 = getelementptr inbounds nuw %struct.NODE, ptr %20, i32 0, i32 1
  store ptr %19, ptr %21, align 8
  %22 = load ptr, ptr %2, align 8
  %23 = getelementptr inbounds nuw %struct.QueryOperator, ptr %22, i32 0, i32 1
  %24 = load i8, ptr %23, align 1
  %25 = sext i8 %24 to i32
  %26 = icmp ne i32 %25, 1
  br i1 %26, label %27, label %37

27:                                               ; preds = %16
  %28 = load ptr, ptr %2, align 8
  %29 = load ptr, ptr %2, align 8
  %30 = getelementptr inbounds nuw %struct.QueryOperator, ptr %29, i32 0, i32 3
  %31 = load i32, ptr %30, align 4
  %32 = zext i32 %31 to i64
  %33 = getelementptr inbounds nuw %union.QueryItem, ptr %28, i64 %32
  %34 = call ptr @maketree(ptr noundef %33)
  %35 = load ptr, ptr %3, align 8
  %36 = getelementptr inbounds nuw %struct.NODE, ptr %35, i32 0, i32 0
  store ptr %34, ptr %36, align 8
  br label %37

37:                                               ; preds = %27, %16
  br label %38

38:                                               ; preds = %37, %1
  %39 = load ptr, ptr %3, align 8
  call void @llvm.lifetime.end.p0(i64 8, ptr %3) #5
  ret ptr %39
}