; Function Attrs: nounwind uwtable
define internal fastcc ptr @maketree(ptr noundef %0) unnamed_addr #0 {
  %2 = tail call ptr @palloc(i64 noundef 24) #7
  tail call void @check_stack_depth() #7
  %3 = getelementptr inbounds nuw i8, ptr %2, i64 16
  store ptr %0, ptr %3, align 8
  tail call void @llvm.memset.p0.i64(ptr noundef nonnull align 8 dereferenceable(16) %2, i8 0, i64 16, i1 false)
  %4 = load i8, ptr %0, align 4
  %5 = icmp eq i8 %4, 2
  br i1 %5, label %6, label %common.ret12

6:                                                ; preds = %1
  %7 = getelementptr inbounds nuw i8, ptr %2, i64 8
  %8 = getelementptr inbounds nuw i8, ptr %0, i64 12
  %9 = tail call fastcc ptr @maketree(ptr noundef nonnull %8)
  store ptr %9, ptr %7, align 8
  %10 = getelementptr inbounds nuw i8, ptr %0, i64 1
  %11 = load i8, ptr %10, align 1
  %.not = icmp eq i8 %11, 1
  br i1 %.not, label %common.ret12, label %12

common.ret12:                                     ; preds = %6, %1, %12
  %common.ret12.op = phi ptr [ %2, %12 ], [ %2, %1 ], [ %2, %6 ]
  ret ptr %common.ret12.op

12:                                               ; preds = %6
  %13 = getelementptr inbounds nuw i8, ptr %0, i64 4
  %14 = load i32, ptr %13, align 4
  %15 = zext i32 %14 to i64
  %16 = getelementptr inbounds nuw %union.QueryItem, ptr %0, i64 %15
  %17 = tail call fastcc ptr @maketree(ptr noundef nonnull %16)
  store ptr %17, ptr %2, align 8
  br label %common.ret12
}